
BubbleSort.elf:     file format elf32-tradbigmips


Disassembly of section .text:

80020000 <main>:
80020000:	27bdffc0 	addiu	sp,sp,-64
80020004:	afbf003c 	sw	ra,60(sp)
80020008:	2402000c 	li	v0,12
8002000c:	afa20018 	sw	v0,24(sp)
80020010:	24020009 	li	v0,9
80020014:	afa2001c 	sw	v0,28(sp)
80020018:	24020004 	li	v0,4
8002001c:	afa20020 	sw	v0,32(sp)
80020020:	24020063 	li	v0,99
80020024:	afa20024 	sw	v0,36(sp)
80020028:	24020078 	li	v0,120
8002002c:	afa20028 	sw	v0,40(sp)
80020030:	24020001 	li	v0,1
80020034:	afa2002c 	sw	v0,44(sp)
80020038:	24020003 	li	v0,3
8002003c:	afa20030 	sw	v0,48(sp)
80020040:	2402000a 	li	v0,10
80020044:	afa20034 	sw	v0,52(sp)
80020048:	24050008 	li	a1,8
8002004c:	27a20018 	addiu	v0,sp,24
80020050:	00402025 	move	a0,v0
80020054:	0c00801c 	jal	80020070 <bubble_srt>
80020058:	00000000 	nop
8002005c:	00001025 	move	v0,zero
80020060:	8fbf003c 	lw	ra,60(sp)
80020064:	27bd0040 	addiu	sp,sp,64
80020068:	03e00008 	jr	ra
8002006c:	00000000 	nop

80020070 <bubble_srt>:
80020070:	27bdffe8 	addiu	sp,sp,-24
80020074:	afa40018 	sw	a0,24(sp)
80020078:	afa5001c 	sw	a1,28(sp)
8002007c:	afa00008 	sw	zero,8(sp)
80020080:	1000003e 	b	8002017c <bubble_srt+0x10c>
80020084:	00000000 	nop
80020088:	24020001 	li	v0,1
8002008c:	afa2000c 	sw	v0,12(sp)
80020090:	10000030 	b	80020154 <bubble_srt+0xe4>
80020094:	00000000 	nop
80020098:	8fa3000c 	lw	v1,12(sp)
8002009c:	3c023fff 	lui	v0,0x3fff
800200a0:	3442ffff 	ori	v0,v0,0xffff
800200a4:	00621021 	addu	v0,v1,v0
800200a8:	00021080 	sll	v0,v0,0x2
800200ac:	8fa30018 	lw	v1,24(sp)
800200b0:	00621021 	addu	v0,v1,v0
800200b4:	8c430000 	lw	v1,0(v0)
800200b8:	8fa2000c 	lw	v0,12(sp)
800200bc:	00021080 	sll	v0,v0,0x2
800200c0:	8fa40018 	lw	a0,24(sp)
800200c4:	00821021 	addu	v0,a0,v0
800200c8:	8c420000 	lw	v0,0(v0)
800200cc:	0043102a 	slt	v0,v0,v1
800200d0:	1040001d 	beqz	v0,80020148 <bubble_srt+0xd8>
800200d4:	00000000 	nop
800200d8:	8fa3000c 	lw	v1,12(sp)
800200dc:	3c023fff 	lui	v0,0x3fff
800200e0:	3442ffff 	ori	v0,v0,0xffff
800200e4:	00621021 	addu	v0,v1,v0
800200e8:	00021080 	sll	v0,v0,0x2
800200ec:	8fa30018 	lw	v1,24(sp)
800200f0:	00621021 	addu	v0,v1,v0
800200f4:	8c420000 	lw	v0,0(v0)
800200f8:	afa20010 	sw	v0,16(sp)
800200fc:	8fa3000c 	lw	v1,12(sp)
80020100:	3c023fff 	lui	v0,0x3fff
80020104:	3442ffff 	ori	v0,v0,0xffff
80020108:	00621021 	addu	v0,v1,v0
8002010c:	00021080 	sll	v0,v0,0x2
80020110:	8fa30018 	lw	v1,24(sp)
80020114:	00621021 	addu	v0,v1,v0
80020118:	8fa3000c 	lw	v1,12(sp)
8002011c:	00031880 	sll	v1,v1,0x2
80020120:	8fa40018 	lw	a0,24(sp)
80020124:	00831821 	addu	v1,a0,v1
80020128:	8c630000 	lw	v1,0(v1)
8002012c:	ac430000 	sw	v1,0(v0)
80020130:	8fa2000c 	lw	v0,12(sp)
80020134:	00021080 	sll	v0,v0,0x2
80020138:	8fa30018 	lw	v1,24(sp)
8002013c:	00621021 	addu	v0,v1,v0
80020140:	8fa30010 	lw	v1,16(sp)
80020144:	ac430000 	sw	v1,0(v0)
80020148:	8fa2000c 	lw	v0,12(sp)
8002014c:	24420001 	addiu	v0,v0,1
80020150:	afa2000c 	sw	v0,12(sp)
80020154:	8fa3001c 	lw	v1,28(sp)
80020158:	8fa20008 	lw	v0,8(sp)
8002015c:	00621823 	subu	v1,v1,v0
80020160:	8fa2000c 	lw	v0,12(sp)
80020164:	0043102a 	slt	v0,v0,v1
80020168:	1440ffcb 	bnez	v0,80020098 <bubble_srt+0x28>
8002016c:	00000000 	nop
80020170:	8fa20008 	lw	v0,8(sp)
80020174:	24420001 	addiu	v0,v0,1
80020178:	afa20008 	sw	v0,8(sp)
8002017c:	8fa30008 	lw	v1,8(sp)
80020180:	8fa2001c 	lw	v0,28(sp)
80020184:	0062102a 	slt	v0,v1,v0
80020188:	1440ffbf 	bnez	v0,80020088 <bubble_srt+0x18>
8002018c:	00000000 	nop
80020190:	00000000 	nop
80020194:	27bd0018 	addiu	sp,sp,24
80020198:	03e00008 	jr	ra
8002019c:	00000000 	nop

Disassembly of section .reginfo:

800201a0 <.reginfo>:
800201a0:	a000003c 	sb	zero,60(zero)
	...

Disassembly of section .MIPS.abiflags:

800201b8 <.MIPS.abiflags>:
800201b8:	00002001 	movf	a0,zero,$fcc0
800201bc:	01010001 	movt	zero,t0,$fcc0
	...
800201c8:	00000001 	movf	zero,zero,$fcc0
800201cc:	00000000 	nop

Disassembly of section .pdr:

00000000 <.pdr>:
   0:	80020000 	lb	v0,0(zero)
   4:	80000000 	lb	zero,0(zero)
   8:	fffffffc 	sdc3	$31,-4(ra)
	...
  14:	00000040 	ssnop
  18:	0000001d 	0x1d
  1c:	0000001f 	0x1f
  20:	80020070 	lb	v0,112(zero)
	...
  34:	00000018 	mult	zero,zero
  38:	0000001d 	0x1d
  3c:	0000001f 	0x1f

Disassembly of section .comment:

00000000 <.comment>:
   0:	4743433a 	c1	0x143433a
   4:	2028536f 	addi	t0,at,21359
   8:	75726365 	jalx	5c98d94 <main-0x7a38726c>
   c:	72792043 	0x72792043
  10:	6f646542 	0x6f646542
  14:	656e6368 	0x656e6368
  18:	204c6974 	addi	t4,v0,26996
  1c:	65203230 	0x65203230
  20:	31362e30 	andi	s6,t1,0x2e30
  24:	352d3829 	ori	t5,t1,0x3829
  28:	20352e33 	addi	s5,at,11827
  2c:	Address 0x000000000000002c is out of bounds.


Disassembly of section .gnu.attributes:

00000000 <.gnu.attributes>:
   0:	41000000 	bc0f	4 <main-0x8001fffc>
   4:	0f676e75 	jal	d9db9d4 <main-0x7264462c>
   8:	00010000 	sll	zero,at,0x0
   c:	00070401 	0x70401
