
CheckVowel.elf:     file format elf32-tradbigmips


Disassembly of section .text:

80020000 <main>:
80020000:	27bdffd8 	addiu	sp,sp,-40
80020004:	afa00008 	sw	zero,8(sp)
80020008:	afa0000c 	sw	zero,12(sp)
8002000c:	3c028002 	lui	v0,0x8002
80020010:	8c4501f0 	lw	a1,496(v0)
80020014:	244301f0 	addiu	v1,v0,496
80020018:	8c640004 	lw	a0,4(v1)
8002001c:	244301f0 	addiu	v1,v0,496
80020020:	8c630008 	lw	v1,8(v1)
80020024:	afa50010 	sw	a1,16(sp)
80020028:	afa40014 	sw	a0,20(sp)
8002002c:	afa30018 	sw	v1,24(sp)
80020030:	244201f0 	addiu	v0,v0,496
80020034:	9042000c 	lbu	v0,12(v0)
80020038:	a3a2001c 	sb	v0,28(sp)
8002003c:	a3a0001d 	sb	zero,29(sp)
80020040:	a3a0001e 	sb	zero,30(sp)
80020044:	a3a0001f 	sb	zero,31(sp)
80020048:	a3a00020 	sb	zero,32(sp)
8002004c:	a3a00021 	sb	zero,33(sp)
80020050:	a3a00022 	sb	zero,34(sp)
80020054:	a3a00023 	sb	zero,35(sp)
80020058:	afa00008 	sw	zero,8(sp)
8002005c:	1000004d 	b	80020194 <main+0x194>
80020060:	00000000 	nop
80020064:	8fa20008 	lw	v0,8(sp)
80020068:	27a30008 	addiu	v1,sp,8
8002006c:	00621021 	addu	v0,v1,v0
80020070:	80430008 	lb	v1,8(v0)
80020074:	24020061 	li	v0,97
80020078:	10620040 	beq	v1,v0,8002017c <main+0x17c>
8002007c:	00000000 	nop
80020080:	8fa20008 	lw	v0,8(sp)
80020084:	27a30008 	addiu	v1,sp,8
80020088:	00621021 	addu	v0,v1,v0
8002008c:	80430008 	lb	v1,8(v0)
80020090:	24020041 	li	v0,65
80020094:	10620039 	beq	v1,v0,8002017c <main+0x17c>
80020098:	00000000 	nop
8002009c:	8fa20008 	lw	v0,8(sp)
800200a0:	27a30008 	addiu	v1,sp,8
800200a4:	00621021 	addu	v0,v1,v0
800200a8:	80430008 	lb	v1,8(v0)
800200ac:	24020065 	li	v0,101
800200b0:	10620032 	beq	v1,v0,8002017c <main+0x17c>
800200b4:	00000000 	nop
800200b8:	8fa20008 	lw	v0,8(sp)
800200bc:	27a30008 	addiu	v1,sp,8
800200c0:	00621021 	addu	v0,v1,v0
800200c4:	80430008 	lb	v1,8(v0)
800200c8:	24020045 	li	v0,69
800200cc:	1062002b 	beq	v1,v0,8002017c <main+0x17c>
800200d0:	00000000 	nop
800200d4:	8fa20008 	lw	v0,8(sp)
800200d8:	27a30008 	addiu	v1,sp,8
800200dc:	00621021 	addu	v0,v1,v0
800200e0:	80430008 	lb	v1,8(v0)
800200e4:	24020069 	li	v0,105
800200e8:	10620024 	beq	v1,v0,8002017c <main+0x17c>
800200ec:	00000000 	nop
800200f0:	8fa20008 	lw	v0,8(sp)
800200f4:	27a30008 	addiu	v1,sp,8
800200f8:	00621021 	addu	v0,v1,v0
800200fc:	80430008 	lb	v1,8(v0)
80020100:	24020049 	li	v0,73
80020104:	1062001d 	beq	v1,v0,8002017c <main+0x17c>
80020108:	00000000 	nop
8002010c:	8fa20008 	lw	v0,8(sp)
80020110:	27a30008 	addiu	v1,sp,8
80020114:	00621021 	addu	v0,v1,v0
80020118:	80430008 	lb	v1,8(v0)
8002011c:	2402006f 	li	v0,111
80020120:	10620016 	beq	v1,v0,8002017c <main+0x17c>
80020124:	00000000 	nop
80020128:	8fa20008 	lw	v0,8(sp)
8002012c:	27a30008 	addiu	v1,sp,8
80020130:	00621021 	addu	v0,v1,v0
80020134:	80430008 	lb	v1,8(v0)
80020138:	2402004f 	li	v0,79
8002013c:	1062000f 	beq	v1,v0,8002017c <main+0x17c>
80020140:	00000000 	nop
80020144:	8fa20008 	lw	v0,8(sp)
80020148:	27a30008 	addiu	v1,sp,8
8002014c:	00621021 	addu	v0,v1,v0
80020150:	80430008 	lb	v1,8(v0)
80020154:	24020075 	li	v0,117
80020158:	10620008 	beq	v1,v0,8002017c <main+0x17c>
8002015c:	00000000 	nop
80020160:	8fa20008 	lw	v0,8(sp)
80020164:	27a30008 	addiu	v1,sp,8
80020168:	00621021 	addu	v0,v1,v0
8002016c:	80430008 	lb	v1,8(v0)
80020170:	24020055 	li	v0,85
80020174:	14620004 	bne	v1,v0,80020188 <main+0x188>
80020178:	00000000 	nop
8002017c:	8fa2000c 	lw	v0,12(sp)
80020180:	24420001 	addiu	v0,v0,1
80020184:	afa2000c 	sw	v0,12(sp)
80020188:	8fa20008 	lw	v0,8(sp)
8002018c:	24420001 	addiu	v0,v0,1
80020190:	afa20008 	sw	v0,8(sp)
80020194:	8fa20008 	lw	v0,8(sp)
80020198:	28420014 	slti	v0,v0,20
8002019c:	1440ffb1 	bnez	v0,80020064 <main+0x64>
800201a0:	00000000 	nop
800201a4:	00001025 	move	v0,zero
800201a8:	27bd0028 	addiu	sp,sp,40
800201ac:	03e00008 	jr	ra
800201b0:	00000000 	nop
	...

Disassembly of section .reginfo:

800201c0 <.reginfo>:
800201c0:	a000003c 	sb	zero,60(zero)
	...

Disassembly of section .MIPS.abiflags:

800201d8 <.MIPS.abiflags>:
800201d8:	00002001 	movf	a0,zero,$fcc0
800201dc:	01010001 	movt	zero,t0,$fcc0
	...
800201e8:	00000001 	movf	zero,zero,$fcc0
800201ec:	00000000 	nop

Disassembly of section .rodata:

800201f0 <.rodata>:
800201f0:	43686563 	c0	0x1686563
800201f4:	6b566f77 	0x6b566f77
800201f8:	656c210a 	0x656c210a
	...

Disassembly of section .pdr:

00000000 <.pdr>:
   0:	80020000 	lb	v0,0(zero)
	...
  14:	00000028 	0x28
  18:	0000001d 	0x1d
  1c:	0000001f 	0x1f

Disassembly of section .comment:

00000000 <.comment>:
   0:	4743433a 	c1	0x143433a
   4:	2028536f 	addi	t0,at,21359
   8:	75726365 	jalx	5c98d94 <main-0x7a38726c>
   c:	72792043 	0x72792043
  10:	6f646542 	0x6f646542
  14:	656e6368 	0x656e6368
  18:	204c6974 	addi	t4,v0,26996
  1c:	65203230 	0x65203230
  20:	31362e30 	andi	s6,t1,0x2e30
  24:	352d3829 	ori	t5,t1,0x3829
  28:	20352e33 	addi	s5,at,11827
  2c:	Address 0x000000000000002c is out of bounds.


Disassembly of section .gnu.attributes:

00000000 <.gnu.attributes>:
   0:	41000000 	bc0f	4 <main-0x8001fffc>
   4:	0f676e75 	jal	d9db9d4 <main-0x7264462c>
   8:	00010000 	sll	zero,at,0x0
   c:	00070401 	0x70401
